target datalayout = "e-m:e-p270:32:32-p271:32:32-p272:64:64-i64:64-i128:128-f80:128-n8:16:32:64-S128"
target triple = "x86_64-pc-linux-gnu"

%struct._zval_struct = type { %union._zend_value, %union.anon, %union.anon.2 }
%union._zend_value = type { i64 }
%union.anon = type { i32 }
%union.anon.2 = type { i32 }
%struct._zend_execute_data = type { ptr, ptr, ptr, ptr, %struct._zval_struct, ptr, ptr, ptr, ptr }

; Function Attrs: nounwind uwtable
define internal void @php_is_type(ptr noundef %0, ptr noundef %1, i32 noundef %2) #0 {
  %4 = alloca ptr, align 8
  %5 = alloca ptr, align 8
  %6 = alloca ptr, align 8
  %7 = alloca ptr, align 8
  %8 = alloca i8, align 1
  %9 = alloca ptr, align 8
  %10 = alloca ptr, align 8
  %11 = alloca i32, align 4
  %12 = alloca ptr, align 8
  %13 = alloca i32, align 4
  %14 = alloca i32, align 4
  %15 = alloca i32, align 4
  %16 = alloca i32, align 4
  %17 = alloca i32, align 4
  %18 = alloca ptr, align 8
  %19 = alloca ptr, align 8
  %20 = alloca i32, align 4
  %21 = alloca ptr, align 8
  %22 = alloca i8, align 1
  %23 = alloca i8, align 1
  %24 = alloca i32, align 4
  %25 = alloca ptr, align 8
  store ptr %0, ptr %9, align 8
  store ptr %1, ptr %10, align 8
  store i32 %2, ptr %11, align 4
  br label %26

26:                                               ; preds = %3
  store i32 0, ptr %13, align 4
  store i32 1, ptr %14, align 4
  store i32 1, ptr %15, align 4
  %27 = load ptr, ptr %9, align 8
  %28 = getelementptr inbounds %struct._zend_execute_data, ptr %27, i32 0, i32 4
  %29 = getelementptr inbounds %struct._zval_struct, ptr %28, i32 0, i32 2
  %30 = load i32, ptr %29, align 4
  store i32 %30, ptr %16, align 4
  store i32 0, ptr %17, align 4
  store ptr null, ptr %19, align 8
  store i32 0, ptr %20, align 4
  store ptr null, ptr %21, align 8
  store i8 0, ptr %22, align 1
  store i8 0, ptr %23, align 1
  store i32 0, ptr %24, align 4
  br label %31

31:                                               ; preds = %26
  %32 = load i32, ptr %16, align 4
  %33 = load i32, ptr %14, align 4
  %34 = icmp ult i32 %32, %33
  %35 = xor i1 %34, true
  %36 = xor i1 %35, true
  %37 = zext i1 %36 to i32
  %38 = sext i32 %37 to i64
  %39 = icmp ne i64 %38, 0
  br i1 %39, label %49, label %40

40:                                               ; preds = %31
  %41 = load i32, ptr %16, align 4
  %42 = load i32, ptr %15, align 4
  %43 = icmp ugt i32 %41, %42
  %44 = xor i1 %43, true
  %45 = xor i1 %44, true
  %46 = zext i1 %45 to i32
  %47 = sext i32 %46 to i64
  %48 = icmp ne i64 %47, 0
  br i1 %48, label %49, label %52

49:                                               ; preds = %40, %31
  %50 = load i32, ptr %14, align 4
  %51 = load i32, ptr %15, align 4
  call void @zend_wrong_parameters_count_error(i32 noundef %50, i32 noundef %51)
  store i32 1, ptr %24, align 4
  br label %118

52:                                               ; preds = %40
  %53 = load ptr, ptr %9, align 8
  %54 = getelementptr inbounds %struct._zval_struct, ptr %53, i64 4
  store ptr %54, ptr %18, align 8
  %55 = load i32, ptr %17, align 4
  %56 = add i32 %55, 1
  store i32 %56, ptr %17, align 4
  %57 = load i32, ptr %17, align 4
  %58 = load i32, ptr %14, align 4
  %59 = icmp ule i32 %57, %58
  br i1 %59, label %65, label %60

60:                                               ; preds = %52
  %61 = load i8, ptr %23, align 1
  %62 = trunc i8 %61 to i1
  %63 = zext i1 %62 to i32
  %64 = icmp eq i32 %63, 1
  br label %65

65:                                               ; preds = %60, %52
  %66 = phi i1 [ true, %52 ], [ %64, %60 ]
  call void @llvm.assume(i1 %66)
  %67 = load i32, ptr %17, align 4
  %68 = load i32, ptr %14, align 4
  %69 = icmp ugt i32 %67, %68
  br i1 %69, label %75, label %70

70:                                               ; preds = %65
  %71 = load i8, ptr %23, align 1
  %72 = trunc i8 %71 to i1
  %73 = zext i1 %72 to i32
  %74 = icmp eq i32 %73, 0
  br label %75

75:                                               ; preds = %70, %65
  %76 = phi i1 [ true, %65 ], [ %74, %70 ]
  call void @llvm.assume(i1 %76)
  %77 = load i8, ptr %23, align 1
  %78 = trunc i8 %77 to i1
  br i1 %78, label %79, label %90

79:                                               ; preds = %75
  %80 = load i32, ptr %17, align 4
  %81 = load i32, ptr %16, align 4
  %82 = icmp ugt i32 %80, %81
  %83 = xor i1 %82, true
  %84 = xor i1 %83, true
  %85 = zext i1 %84 to i32
  %86 = sext i32 %85 to i64
  %87 = icmp ne i64 %86, 0
  br i1 %87, label %88, label %89

88:                                               ; preds = %79
  br label %118

89:                                               ; preds = %79
  br label %90

90:                                               ; preds = %89, %75
  %91 = load ptr, ptr %18, align 8
  %92 = getelementptr inbounds %struct._zval_struct, ptr %91, i32 1
  store ptr %92, ptr %18, align 8
  %93 = load ptr, ptr %18, align 8
  store ptr %93, ptr %19, align 8
  %94 = load ptr, ptr %19, align 8
  store ptr %94, ptr %6, align 8
  store ptr %12, ptr %7, align 8
  store i8 0, ptr %8, align 1
  %95 = load i8, ptr %8, align 1
  %96 = trunc i8 %95 to i1
  br i1 %96, label %97, label %105

97:                                               ; preds = %90
  %98 = load ptr, ptr %6, align 8
  store ptr %98, ptr %5, align 8
  %99 = load ptr, ptr %5, align 8
  %100 = getelementptr inbounds %struct._zval_struct, ptr %99, i32 0, i32 1
  %101 = load i8, ptr %100, align 8
  %102 = zext i8 %101 to i32
  %103 = icmp eq i32 %102, 1
  br i1 %103, label %104, label %105

104:                                              ; preds = %97
  br label %107

105:                                              ; preds = %97, %90
  %106 = load ptr, ptr %6, align 8
  br label %107

107:                                              ; preds = %105, %104
  %108 = phi ptr [ null, %104 ], [ %106, %105 ]
  %109 = load ptr, ptr %7, align 8
  store ptr %108, ptr %109, align 8
  %110 = load i32, ptr %17, align 4
  %111 = load i32, ptr %15, align 4
  %112 = icmp eq i32 %110, %111
  br i1 %112, label %116, label %113

113:                                              ; preds = %107
  %114 = load i32, ptr %15, align 4
  %115 = icmp eq i32 %114, -1
  br label %116

116:                                              ; preds = %113, %107
  %117 = phi i1 [ true, %107 ], [ %115, %113 ]
  call void @llvm.assume(i1 %117)
  br label %118

118:                                              ; preds = %116, %88, %49
  %119 = load i32, ptr %24, align 4
  %120 = icmp ne i32 %119, 0
  %121 = xor i1 %120, true
  %122 = xor i1 %121, true
  %123 = zext i1 %122 to i32
  %124 = sext i32 %123 to i64
  %125 = icmp ne i64 %124, 0
  br i1 %125, label %126, label %132

126:                                              ; preds = %118
  %127 = load i32, ptr %24, align 4
  %128 = load i32, ptr %17, align 4
  %129 = load ptr, ptr %21, align 8
  %130 = load i32, ptr %20, align 4
  %131 = load ptr, ptr %19, align 8
  call void @zend_wrong_parameter_error(i32 noundef %127, i32 noundef %128, ptr noundef %129, i32 noundef %130, ptr noundef %131)
  br label %173

132:                                              ; preds = %118
  br label %133

133:                                              ; preds = %132
  %134 = load ptr, ptr %12, align 8
  store ptr %134, ptr %4, align 8
  %135 = load ptr, ptr %4, align 8
  %136 = getelementptr inbounds %struct._zval_struct, ptr %135, i32 0, i32 1
  %137 = load i8, ptr %136, align 8
  %138 = zext i8 %137 to i32
  %139 = load i32, ptr %11, align 4
  %140 = icmp eq i32 %138, %139
  br i1 %140, label %141, label %166

141:                                              ; preds = %133
  %142 = load i32, ptr %11, align 4
  %143 = icmp eq i32 %142, 9
  br i1 %143, label %144, label %159

144:                                              ; preds = %141
  %145 = load ptr, ptr %12, align 8
  %146 = getelementptr inbounds %struct._zval_struct, ptr %145, i32 0, i32 0
  %147 = load ptr, ptr %146, align 8
  %148 = call ptr @zend_rsrc_list_get_rsrc_type(ptr noundef %147)
  store ptr %148, ptr %25, align 8
  %149 = load ptr, ptr %25, align 8
  %150 = icmp ne ptr %149, null
  br i1 %150, label %158, label %151

151:                                              ; preds = %144
  br label %152

152:                                              ; preds = %151
  br label %153

153:                                              ; preds = %152
  %154 = load ptr, ptr %10, align 8
  %155 = getelementptr inbounds %struct._zval_struct, ptr %154, i32 0, i32 1
  store i32 2, ptr %155, align 8
  br label %156

156:                                              ; preds = %153
  br label %173

157:                                              ; No predecessors!
  br label %158

158:                                              ; preds = %157, %144
  br label %159

159:                                              ; preds = %158, %141
  br label %160

160:                                              ; preds = %159
  br label %161

161:                                              ; preds = %160
  %162 = load ptr, ptr %10, align 8
  %163 = getelementptr inbounds %struct._zval_struct, ptr %162, i32 0, i32 1
  store i32 3, ptr %163, align 8
  br label %164

164:                                              ; preds = %161
  br label %173

165:                                              ; No predecessors!
  br label %173

166:                                              ; preds = %133
  br label %167

167:                                              ; preds = %166
  br label %168

168:                                              ; preds = %167
  %169 = load ptr, ptr %10, align 8
  %170 = getelementptr inbounds %struct._zval_struct, ptr %169, i32 0, i32 1
  store i32 2, ptr %170, align 8
  br label %171

171:                                              ; preds = %168
  br label %173

172:                                              ; No predecessors!
  br label %173

173:                                              ; preds = %172, %171, %165, %164, %156, %126
  ret void
}

; Function Attrs: nounwind uwtable
define hidden void @zif_is_int(ptr noundef %0, ptr noundef %1) #0 {
  %3 = alloca ptr, align 8
  %4 = alloca ptr, align 8
  store ptr %0, ptr %3, align 8
  store ptr %1, ptr %4, align 8
  %5 = load ptr, ptr %3, align 8
  %6 = load ptr, ptr %4, align 8
  call void @php_is_type(ptr noundef %5, ptr noundef %6, i32 noundef 4)
  ret void
}